target datalayout = "e-m:e-p270:32:32-p271:32:32-p272:64:64-i64:64-i128:128-f80:128-n8:16:32:64-S128"
target triple = "x86_64-pc-linux-gnu"

%struct.asn1_string_st = type { i32, i32, ptr, i64 }
%struct.X509_name_st = type { ptr, i32, ptr, ptr, i32 }
%struct.X509_name_entry_st = type { ptr, ptr, i32, i32 }

; Function Attrs: nounwind uwtable
define hidden ptr @X509_NAME_ENTRY_get_data(ptr noundef %0) #0 {
  %2 = alloca ptr, align 8
  %3 = alloca ptr, align 8
  store ptr %0, ptr %3, align 8, !tbaa !29
  %4 = load ptr, ptr %3, align 8, !tbaa !29
  %5 = icmp eq ptr %4, null
  br i1 %5, label %6, label %7

6:                                                ; preds = %1
  store ptr null, ptr %2, align 8
  br label %11

7:                                                ; preds = %1
  %8 = load ptr, ptr %3, align 8, !tbaa !29
  %9 = getelementptr inbounds nuw %struct.X509_name_entry_st, ptr %8, i32 0, i32 1
  %10 = load ptr, ptr %9, align 8, !tbaa !35
  store ptr %10, ptr %2, align 8
  br label %11

11:                                               ; preds = %7, %6
  %12 = load ptr, ptr %2, align 8
  ret ptr %12
}

; Function Attrs: nounwind uwtable
define hidden ptr @X509_NAME_get_entry(ptr noundef %0, i32 noundef %1) #0 {
  %3 = alloca ptr, align 8
  %4 = alloca ptr, align 8
  %5 = alloca i32, align 4
  store ptr %0, ptr %4, align 8, !tbaa !6
  store i32 %1, ptr %5, align 4, !tbaa !11
  %6 = load ptr, ptr %4, align 8, !tbaa !6
  %7 = icmp eq ptr %6, null
  br i1 %7, label %19, label %8

8:                                                ; preds = %2
  %9 = load i32, ptr %5, align 4, !tbaa !11
  %10 = icmp slt i32 %9, 0
  br i1 %10, label %19, label %11

11:                                               ; preds = %8
  %12 = load ptr, ptr %4, align 8, !tbaa !6
  %13 = getelementptr inbounds nuw %struct.X509_name_st, ptr %12, i32 0, i32 0
  %14 = load ptr, ptr %13, align 8, !tbaa !24
  %15 = call i64 @sk_num(ptr noundef %14)
  %16 = load i32, ptr %5, align 4, !tbaa !11
  %17 = sext i32 %16 to i64
  %18 = icmp ule i64 %15, %17
  br i1 %18, label %19, label %20

19:                                               ; preds = %11, %8, %2
  store ptr null, ptr %3, align 8
  br label %27

20:                                               ; preds = %11
  %21 = load ptr, ptr %4, align 8, !tbaa !6
  %22 = getelementptr inbounds nuw %struct.X509_name_st, ptr %21, i32 0, i32 0
  %23 = load ptr, ptr %22, align 8, !tbaa !24
  %24 = load i32, ptr %5, align 4, !tbaa !11
  %25 = sext i32 %24 to i64
  %26 = call ptr @sk_value(ptr noundef %23, i64 noundef %25)
  store ptr %26, ptr %3, align 8
  br label %27

27:                                               ; preds = %20, %19
  %28 = load ptr, ptr %3, align 8
  ret ptr %28
}

; Function Attrs: nounwind uwtable
define hidden i32 @X509_NAME_get_index_by_OBJ(ptr noundef %0, ptr noundef %1, i32 noundef %2) #0 {
  %4 = alloca i32, align 4
  %5 = alloca ptr, align 8
  %6 = alloca ptr, align 8
  %7 = alloca i32, align 4
  %8 = alloca i32, align 4
  %9 = alloca ptr, align 8
  %10 = alloca ptr, align 8
  %11 = alloca i32, align 4
  store ptr %0, ptr %5, align 8, !tbaa !6
  store ptr %1, ptr %6, align 8, !tbaa !15
  store i32 %2, ptr %7, align 4, !tbaa !11
  call void @llvm.lifetime.start.p0(i64 4, ptr %8) #5
  call void @llvm.lifetime.start.p0(i64 8, ptr %9) #5
  call void @llvm.lifetime.start.p0(i64 8, ptr %10) #5
  %12 = load ptr, ptr %5, align 8, !tbaa !6
  %13 = icmp eq ptr %12, null
  br i1 %13, label %14, label %15

14:                                               ; preds = %3
  store i32 -1, ptr %4, align 4
  store i32 1, ptr %11, align 4
  br label %50

15:                                               ; preds = %3
  %16 = load i32, ptr %7, align 4, !tbaa !11
  %17 = icmp slt i32 %16, 0
  br i1 %17, label %18, label %19

18:                                               ; preds = %15
  store i32 -1, ptr %7, align 4, !tbaa !11
  br label %19

19:                                               ; preds = %18, %15
  %20 = load ptr, ptr %5, align 8, !tbaa !6
  %21 = getelementptr inbounds nuw %struct.X509_name_st, ptr %20, i32 0, i32 0
  %22 = load ptr, ptr %21, align 8, !tbaa !24
  store ptr %22, ptr %10, align 8, !tbaa !28
  %23 = load ptr, ptr %10, align 8, !tbaa !28
  %24 = call i64 @sk_num(ptr noundef %23)
  %25 = trunc i64 %24 to i32
  store i32 %25, ptr %8, align 4, !tbaa !11
  %26 = load i32, ptr %7, align 4, !tbaa !11
  %27 = add nsw i32 %26, 1
  store i32 %27, ptr %7, align 4, !tbaa !11
  br label %28

28:                                               ; preds = %46, %19
  %29 = load i32, ptr %7, align 4, !tbaa !11
  %30 = load i32, ptr %8, align 4, !tbaa !11
  %31 = icmp slt i32 %29, %30
  br i1 %31, label %32, label %49

32:                                               ; preds = %28
  %33 = load ptr, ptr %10, align 8, !tbaa !28
  %34 = load i32, ptr %7, align 4, !tbaa !11
  %35 = sext i32 %34 to i64
  %36 = call ptr @sk_value(ptr noundef %33, i64 noundef %35)
  store ptr %36, ptr %9, align 8, !tbaa !29
  %37 = load ptr, ptr %9, align 8, !tbaa !29
  %38 = getelementptr inbounds nuw %struct.X509_name_entry_st, ptr %37, i32 0, i32 0
  %39 = load ptr, ptr %38, align 8, !tbaa !31
  %40 = load ptr, ptr %6, align 8, !tbaa !15
  %41 = call i32 @OBJ_cmp(ptr noundef %39, ptr noundef %40)
  %42 = icmp eq i32 %41, 0
  br i1 %42, label %43, label %45

43:                                               ; preds = %32
  %44 = load i32, ptr %7, align 4, !tbaa !11
  store i32 %44, ptr %4, align 4
  store i32 1, ptr %11, align 4
  br label %50

45:                                               ; preds = %32
  br label %46

46:                                               ; preds = %45
  %47 = load i32, ptr %7, align 4, !tbaa !11
  %48 = add nsw i32 %47, 1
  store i32 %48, ptr %7, align 4, !tbaa !11
  br label %28, !llvm.loop !33

49:                                               ; preds = %28
  store i32 -1, ptr %4, align 4
  store i32 1, ptr %11, align 4
  br label %50

50:                                               ; preds = %49, %43, %14
  call void @llvm.lifetime.end.p0(i64 8, ptr %10) #5
  call void @llvm.lifetime.end.p0(i64 8, ptr %9) #5
  call void @llvm.lifetime.end.p0(i64 4, ptr %8) #5
  %51 = load i32, ptr %4, align 4
  ret i32 %51
}

; Function Attrs: nounwind uwtable
define hidden i32 @X509_NAME_get_text_by_OBJ(ptr noundef %0, ptr noundef %1, ptr noundef %2, i32 noundef %3) #0 {
  %5 = alloca i32, align 4
  %6 = alloca ptr, align 8
  %7 = alloca ptr, align 8
  %8 = alloca ptr, align 8
  %9 = alloca i32, align 4
  %10 = alloca i32, align 4
  %11 = alloca ptr, align 8
  %12 = alloca i32, align 4
  store ptr %0, ptr %6, align 8, !tbaa !6
  store ptr %1, ptr %7, align 8, !tbaa !15
  store ptr %2, ptr %8, align 8, !tbaa !13
  store i32 %3, ptr %9, align 4, !tbaa !11
  call void @llvm.lifetime.start.p0(i64 4, ptr %10) #5
  call void @llvm.lifetime.start.p0(i64 8, ptr %11) #5
  %13 = load ptr, ptr %6, align 8, !tbaa !6
  %14 = load ptr, ptr %7, align 8, !tbaa !15
  %15 = call i32 @X509_NAME_get_index_by_OBJ(ptr noundef %13, ptr noundef %14, i32 noundef -1)
  store i32 %15, ptr %10, align 4, !tbaa !11
  %16 = load i32, ptr %10, align 4, !tbaa !11
  %17 = icmp slt i32 %16, 0
  br i1 %17, label %18, label %19

18:                                               ; preds = %4
  store i32 -1, ptr %5, align 4
  store i32 1, ptr %12, align 4
  br label %57

19:                                               ; preds = %4
  %20 = load ptr, ptr %6, align 8, !tbaa !6
  %21 = load i32, ptr %10, align 4, !tbaa !11
  %22 = call ptr @X509_NAME_get_entry(ptr noundef %20, i32 noundef %21)
  %23 = call ptr @X509_NAME_ENTRY_get_data(ptr noundef %22)
  store ptr %23, ptr %11, align 8, !tbaa !17
  %24 = load ptr, ptr %11, align 8, !tbaa !17
  %25 = getelementptr inbounds nuw %struct.asn1_string_st, ptr %24, i32 0, i32 0
  %26 = load i32, ptr %25, align 8, !tbaa !19
  %27 = load i32, ptr %9, align 4, !tbaa !11
  %28 = sub nsw i32 %27, 1
  %29 = icmp sgt i32 %26, %28
  br i1 %29, label %30, label %33

30:                                               ; preds = %19
  %31 = load i32, ptr %9, align 4, !tbaa !11
  %32 = sub nsw i32 %31, 1
  br label %37

33:                                               ; preds = %19
  %34 = load ptr, ptr %11, align 8, !tbaa !17
  %35 = getelementptr inbounds nuw %struct.asn1_string_st, ptr %34, i32 0, i32 0
  %36 = load i32, ptr %35, align 8, !tbaa !19
  br label %37

37:                                               ; preds = %33, %30
  %38 = phi i32 [ %32, %30 ], [ %36, %33 ]
  store i32 %38, ptr %10, align 4, !tbaa !11
  %39 = load ptr, ptr %8, align 8, !tbaa !13
  %40 = icmp eq ptr %39, null
  br i1 %40, label %41, label %45

41:                                               ; preds = %37
  %42 = load ptr, ptr %11, align 8, !tbaa !17
  %43 = getelementptr inbounds nuw %struct.asn1_string_st, ptr %42, i32 0, i32 0
  %44 = load i32, ptr %43, align 8, !tbaa !19
  store i32 %44, ptr %5, align 4
  store i32 1, ptr %12, align 4
  br label %57

45:                                               ; preds = %37
  %46 = load ptr, ptr %8, align 8, !tbaa !13
  %47 = load ptr, ptr %11, align 8, !tbaa !17
  %48 = getelementptr inbounds nuw %struct.asn1_string_st, ptr %47, i32 0, i32 2
  %49 = load ptr, ptr %48, align 8, !tbaa !22
  %50 = load i32, ptr %10, align 4, !tbaa !11
  %51 = sext i32 %50 to i64
  call void @llvm.memcpy.p0.p0.i64(ptr align 1 %46, ptr align 1 %49, i64 %51, i1 false)
  %52 = load ptr, ptr %8, align 8, !tbaa !13
  %53 = load i32, ptr %10, align 4, !tbaa !11
  %54 = sext i32 %53 to i64
  %55 = getelementptr inbounds i8, ptr %52, i64 %54
  store i8 0, ptr %55, align 1, !tbaa !23
  %56 = load i32, ptr %10, align 4, !tbaa !11
  store i32 %56, ptr %5, align 4
  store i32 1, ptr %12, align 4
  br label %57

57:                                               ; preds = %45, %41, %18
  call void @llvm.lifetime.end.p0(i64 8, ptr %11) #5
  call void @llvm.lifetime.end.p0(i64 4, ptr %10) #5
  %58 = load i32, ptr %5, align 4
  ret i32 %58
}