; Function Attrs: nounwind uwtable
define hidden i32 @X509_NAME_get_text_by_OBJ(ptr noundef readonly captures(address_is_null) %0, ptr noundef %1, ptr noundef writeonly captures(address_is_null) %2, i32 noundef %3) local_unnamed_addr #0 {
  %5 = icmp eq ptr %0, null
  br i1 %5, label %X509_NAME_get_index_by_OBJ.exit.thread, label %6

6:                                                ; preds = %4
  %7 = load ptr, ptr %0, align 8, !tbaa !6
  %8 = tail call i64 @sk_num(ptr noundef %7) #7
  %sext.i = shl i64 %8, 32
  %9 = ashr exact i64 %sext.i, 32
  %smax = tail call i64 @llvm.smax.i64(i64 %9, i64 0)
  %10 = add nsw i64 %smax, -1
  br label %11

11:                                               ; preds = %12, %6
  %indvars.iv.i = phi i64 [ %indvars.iv.next.i, %12 ], [ -1, %6 ]
  %exitcond.not = icmp eq i64 %indvars.iv.i, %10
  br i1 %exitcond.not, label %X509_NAME_get_index_by_OBJ.exit.thread, label %12

12:                                               ; preds = %11
  %indvars.iv.next.i = add nsw i64 %indvars.iv.i, 1
  %13 = tail call ptr @sk_value(ptr noundef %7, i64 noundef %indvars.iv.next.i) #7
  %14 = load ptr, ptr %13, align 8, !tbaa !15
  %15 = tail call i32 @OBJ_cmp(ptr noundef %14, ptr noundef %1) #7
  %16 = icmp eq i32 %15, 0
  br i1 %16, label %X509_NAME_get_index_by_OBJ.exit, label %11, !llvm.loop !19

X509_NAME_get_index_by_OBJ.exit:                  ; preds = %12
  %17 = icmp slt i64 %indvars.iv.i, -1
  br i1 %17, label %X509_NAME_get_index_by_OBJ.exit.thread, label %X509_NAME_get_entry.exit

X509_NAME_get_entry.exit:                         ; preds = %X509_NAME_get_index_by_OBJ.exit
  %18 = load ptr, ptr %0, align 8, !tbaa !6
  %19 = tail call i64 @sk_num(ptr noundef %18) #7
  %20 = and i64 %indvars.iv.next.i, 4294967295
  %.not.i = icmp ugt i64 %19, %20
  tail call void @llvm.assume(i1 %.not.i)
  %21 = load ptr, ptr %0, align 8, !tbaa !6
  %22 = tail call ptr @sk_value(ptr noundef %21, i64 noundef %20) #7
  %23 = icmp ne ptr %22, null
  tail call void @llvm.assume(i1 %23)
  %24 = getelementptr inbounds nuw i8, ptr %22, i64 8
  %25 = load ptr, ptr %24, align 8, !tbaa !21
  %26 = load i32, ptr %25, align 8, !tbaa !22
  %27 = icmp eq ptr %2, null
  br i1 %27, label %X509_NAME_get_index_by_OBJ.exit.thread, label %28

28:                                               ; preds = %X509_NAME_get_entry.exit
  %.not = icmp slt i32 %26, %3
  %29 = add nsw i32 %3, -1
  %30 = select i1 %.not, i32 %26, i32 %29
  %31 = getelementptr inbounds nuw i8, ptr %25, i64 8
  %32 = load ptr, ptr %31, align 8, !tbaa !25
  %33 = sext i32 %30 to i64
  tail call void @llvm.memcpy.p0.p0.i64(ptr nonnull align 1 %2, ptr align 1 %32, i64 %33, i1 false)
  %34 = getelementptr inbounds i8, ptr %2, i64 %33
  store i8 0, ptr %34, align 1, !tbaa !26
  br label %X509_NAME_get_index_by_OBJ.exit.thread

X509_NAME_get_index_by_OBJ.exit.thread:           ; preds = %11, %4, %X509_NAME_get_entry.exit, %X509_NAME_get_index_by_OBJ.exit, %28
  %.0 = phi i32 [ %30, %28 ], [ -1, %X509_NAME_get_index_by_OBJ.exit ], [ %26, %X509_NAME_get_entry.exit ], [ -1, %4 ], [ -1, %11 ]
  ret i32 %.0
}